target datalayout = "e-m:e-p270:32:32-p271:32:32-p272:64:64-i64:64-i128:128-f80:128-n8:16:32:64-S128"
target triple = "x86_64-pc-linux-gnu"

%struct.pm_string_t = type { ptr, i64, i32 }
%struct.pm_options = type { ptr, ptr, %struct.pm_string_t, i32, %struct.pm_string_t, i64, ptr, i32, i8, i8, i8, i8, i8, i8 }
%struct.pm_parser = type { i32, i32, i32, i32, i32, i32, i32, %struct.anon.5, ptr, ptr, %struct.pm_token_t, %struct.pm_token_t, ptr, ptr, %struct.pm_list_t, %struct.pm_list_t, %struct.pm_location_t, %struct.pm_list_t, %struct.pm_list_t, ptr, ptr, ptr, ptr, ptr, ptr, ptr, %struct.pm_string_t, %struct.pm_constant_pool_t, %struct.pm_newline_list_t, i16, %struct.pm_string_t, i32, ptr, ptr, i32, i8, i8, i8, i8, i8, i8, i8, i8, i8, i8, i8, i8, i8 }
%struct.anon.5 = type { ptr, [4 x %struct.pm_lex_mode], i64 }
%struct.pm_lex_mode = type { i32, %union.anon.6, ptr }
%union.anon.6 = type { %struct.anon.10 }
%struct.anon.10 = type { %struct.pm_heredoc_lex_mode_t, ptr, ptr, i8 }
%struct.pm_heredoc_lex_mode_t = type { ptr, i64, i32, i32 }
%struct.pm_token_t = type { i32, ptr, ptr }
%struct.pm_location_t = type { ptr, ptr }
%struct.pm_list_t = type { i64, ptr, ptr }
%struct.pm_constant_pool_t = type { ptr, ptr, i32, i32 }
%struct.pm_newline_list_t = type { ptr, i64, i64, ptr }
%struct.pm_encoding_t = type { ptr, ptr, ptr, ptr, ptr, i8 }

@rb_cPrismParseResult = hidden global i64 0, align 8

; Function Attrs: nounwind sspstrong uwtable
define internal i64 @parse_input(ptr noundef %0, ptr noundef %1) #0 {
  %3 = alloca ptr, align 8
  %4 = alloca ptr, align 8
  %5 = alloca %struct.pm_parser, align 8
  %6 = alloca ptr, align 8
  %7 = alloca ptr, align 8
  %8 = alloca i64, align 8
  %9 = alloca i64, align 8
  %10 = alloca i64, align 8
  store ptr %0, ptr %3, align 8, !tbaa !49
  store ptr %1, ptr %4, align 8, !tbaa !50
  call void @llvm.lifetime.start.p0(i64 712, ptr %5) #24
  %11 = load ptr, ptr %3, align 8, !tbaa !49
  %12 = call ptr @pm_string_source(ptr noundef %11)
  %13 = load ptr, ptr %3, align 8, !tbaa !49
  %14 = call i64 @pm_string_length(ptr noundef %13)
  %15 = load ptr, ptr %4, align 8, !tbaa !50
  call void @pm_parser_init(ptr noundef %5, ptr noundef %12, i64 noundef %14, ptr noundef %15)
  call void @llvm.lifetime.start.p0(i64 8, ptr %6) #24
  %16 = call ptr @pm_parse(ptr noundef %5)
  store ptr %16, ptr %6, align 8, !tbaa !20
  call void @llvm.lifetime.start.p0(i64 8, ptr %7) #24
  %17 = getelementptr inbounds nuw %struct.pm_parser, ptr %5, i32 0, i32 22
  %18 = load ptr, ptr %17, align 8, !tbaa !22
  %19 = getelementptr inbounds nuw %struct.pm_encoding_t, ptr %18, i32 0, i32 4
  %20 = load ptr, ptr %19, align 8, !tbaa !38
  %21 = call ptr @rb_enc_find(ptr noundef %20)
  store ptr %21, ptr %7, align 8, !tbaa !40
  call void @llvm.lifetime.start.p0(i64 8, ptr %8) #24
  %22 = load ptr, ptr %7, align 8, !tbaa !40
  %23 = load ptr, ptr %4, align 8, !tbaa !50
  %24 = getelementptr inbounds nuw %struct.pm_options, ptr %23, i32 0, i32 13
  %25 = load i8, ptr %24, align 1, !tbaa !42, !range !45, !noundef !46
  %26 = trunc i8 %25 to i1
  %27 = call i64 @pm_source_new(ptr noundef %5, ptr noundef %22, i1 noundef zeroext %26)
  store i64 %27, ptr %8, align 8, !tbaa !7
  call void @llvm.lifetime.start.p0(i64 8, ptr %9) #24
  %28 = load ptr, ptr %6, align 8, !tbaa !20
  %29 = load ptr, ptr %7, align 8, !tbaa !40
  %30 = load i64, ptr %8, align 8, !tbaa !7
  %31 = load ptr, ptr %4, align 8, !tbaa !50
  %32 = getelementptr inbounds nuw %struct.pm_options, ptr %31, i32 0, i32 13
  %33 = load i8, ptr %32, align 1, !tbaa !42, !range !45, !noundef !46
  %34 = trunc i8 %33 to i1
  %35 = call i64 @pm_ast_new(ptr noundef %5, ptr noundef %28, ptr noundef %29, i64 noundef %30, i1 noundef zeroext %34)
  store i64 %35, ptr %9, align 8, !tbaa !7
  call void @llvm.lifetime.start.p0(i64 8, ptr %10) #24
  %36 = load i64, ptr @rb_cPrismParseResult, align 8, !tbaa !7
  %37 = load i64, ptr %9, align 8, !tbaa !7
  %38 = load ptr, ptr %7, align 8, !tbaa !40
  %39 = load i64, ptr %8, align 8, !tbaa !7
  %40 = load ptr, ptr %4, align 8, !tbaa !50
  %41 = getelementptr inbounds nuw %struct.pm_options, ptr %40, i32 0, i32 13
  %42 = load i8, ptr %41, align 1, !tbaa !42, !range !45, !noundef !46
  %43 = trunc i8 %42 to i1
  %44 = call i64 @parse_result_create(i64 noundef %36, ptr noundef %5, i64 noundef %37, ptr noundef %38, i64 noundef %39, i1 noundef zeroext %43)
  store i64 %44, ptr %10, align 8, !tbaa !7
  %45 = load ptr, ptr %4, align 8, !tbaa !50
  %46 = getelementptr inbounds nuw %struct.pm_options, ptr %45, i32 0, i32 13
  %47 = load i8, ptr %46, align 1, !tbaa !42, !range !45, !noundef !46
  %48 = trunc i8 %47 to i1
  br i1 %48, label %49, label %52

49:                                               ; preds = %2
  %50 = load i64, ptr %8, align 8, !tbaa !7
  %51 = call i64 @rb_obj_freeze(i64 noundef %50)
  br label %52

52:                                               ; preds = %49, %2
  %53 = load ptr, ptr %6, align 8, !tbaa !20
  call void @pm_node_destroy(ptr noundef %5, ptr noundef %53)
  call void @pm_parser_free(ptr noundef %5)
  %54 = load i64, ptr %10, align 8, !tbaa !7
  call void @llvm.lifetime.end.p0(i64 8, ptr %10) #24
  call void @llvm.lifetime.end.p0(i64 8, ptr %9) #24
  call void @llvm.lifetime.end.p0(i64 8, ptr %8) #24
  call void @llvm.lifetime.end.p0(i64 8, ptr %7) #24
  call void @llvm.lifetime.end.p0(i64 8, ptr %6) #24
  call void @llvm.lifetime.end.p0(i64 712, ptr %5) #24
  ret i64 %54
}