; Function Attrs: nounwind sspstrong uwtable
define internal fastcc i64 @parse_input(ptr noundef nonnull %0, ptr noundef nonnull %1) unnamed_addr #0 {
  %3 = alloca %struct.pm_parser, align 8
  call void @llvm.lifetime.start.p0(i64 712, ptr nonnull %3) #9
  %4 = tail call ptr @pm_string_source(ptr noundef nonnull %0) #9
  %5 = tail call i64 @pm_string_length(ptr noundef nonnull %0) #9
  call void @pm_parser_init(ptr noundef nonnull %3, ptr noundef %4, i64 noundef %5, ptr noundef nonnull %1) #9
  %6 = call ptr @pm_parse(ptr noundef nonnull %3) #9
  %7 = getelementptr inbounds nuw i8, ptr %3, i64 520
  %8 = load ptr, ptr %7, align 8, !tbaa !26
  %9 = getelementptr inbounds nuw i8, ptr %8, i64 32
  %10 = load ptr, ptr %9, align 8, !tbaa !41
  %11 = call ptr @rb_enc_find(ptr noundef %10) #9
  %12 = getelementptr inbounds nuw i8, ptr %1, i64 97
  %13 = load i8, ptr %12, align 1, !tbaa !43, !range !44, !noundef !45
  %14 = trunc nuw i8 %13 to i1
  %15 = call i64 @pm_source_new(ptr noundef nonnull %3, ptr noundef %11, i1 noundef zeroext %14) #9
  %16 = load i8, ptr %12, align 1, !tbaa !43, !range !44, !noundef !45
  %17 = trunc nuw i8 %16 to i1
  %18 = call i64 @pm_ast_new(ptr noundef nonnull %3, ptr noundef %6, ptr noundef %11, i64 noundef %15, i1 noundef zeroext %17) #9
  %19 = load i64, ptr @rb_cPrismParseResult, align 8, !tbaa !7
  %20 = load i8, ptr %12, align 1, !tbaa !43, !range !44, !noundef !45
  %21 = trunc nuw i8 %20 to i1
  %22 = call fastcc i64 @parse_result_create(i64 noundef %19, ptr noundef %3, i64 noundef %18, ptr noundef %11, i64 noundef %15, i1 noundef zeroext %21)
  %23 = load i8, ptr %12, align 1, !tbaa !43, !range !44, !noundef !45
  %24 = trunc nuw i8 %23 to i1
  br i1 %24, label %25, label %27

25:                                               ; preds = %2
  %26 = call i64 @rb_obj_freeze(i64 noundef %15) #9
  br label %27

27:                                               ; preds = %25, %2
  call void @pm_node_destroy(ptr noundef nonnull %3, ptr noundef %6) #9
  call void @pm_parser_free(ptr noundef nonnull %3) #9
  call void @llvm.lifetime.end.p0(i64 712, ptr nonnull %3) #9
  ret i64 %22
}